target datalayout = "e-m:e-p270:32:32-p271:32:32-p272:64:64-i64:64-i128:128-f80:128-n8:16:32:64-S128"
target triple = "x86_64-unknown-linux-gnu"

%"class.icu_75::Calendar" = type <{ %"class.icu_75::UObject", i8, i8, i8, i8, [24 x i32], [24 x i8], [24 x i32], i32, double, i8, [7 x i8], ptr, i32, i32, i32, i8, [3 x i8], i32, i32, i32, i32, i32, i32, i32, i32, [157 x i8], [157 x i8], [6 x i8] }>
%"class.icu_75::UObject" = type { ptr }

; Function Attrs: mustprogress nounwind uwtable
define linkonce_odr void @_ZN6icu_758Calendar11internalSetE19UCalendarDateFieldsi(ptr noundef nonnull align 8 dereferenceable(618) %this, i32 noundef %field, i32 noundef %value) #0 comdat align 2 {
entry:
  %this.addr = alloca ptr, align 8
  %field.addr = alloca i32, align 4
  %value.addr = alloca i32, align 4
  store ptr %this, ptr %this.addr, align 8
  store i32 %field, ptr %field.addr, align 4
  store i32 %value, ptr %value.addr, align 4
  %this1 = load ptr, ptr %this.addr, align 8
  %0 = load i32, ptr %value.addr, align 4
  %fFields = getelementptr inbounds %"class.icu_75::Calendar", ptr %this1, i32 0, i32 5
  %1 = load i32, ptr %field.addr, align 4
  %idxprom = zext i32 %1 to i64
  %arrayidx = getelementptr inbounds [24 x i32], ptr %fFields, i64 0, i64 %idxprom
  store i32 %0, ptr %arrayidx, align 4
  %fStamp = getelementptr inbounds %"class.icu_75::Calendar", ptr %this1, i32 0, i32 7
  %2 = load i32, ptr %field.addr, align 4
  %idxprom2 = zext i32 %2 to i64
  %arrayidx3 = getelementptr inbounds [24 x i32], ptr %fStamp, i64 0, i64 %idxprom2
  store i32 1, ptr %arrayidx3, align 4
  %fIsSet = getelementptr inbounds %"class.icu_75::Calendar", ptr %this1, i32 0, i32 6
  %3 = load i32, ptr %field.addr, align 4
  %idxprom4 = zext i32 %3 to i64
  %arrayidx5 = getelementptr inbounds [24 x i8], ptr %fIsSet, i64 0, i64 %idxprom4
  store i8 1, ptr %arrayidx5, align 1
  ret void
}

; Function Attrs: mustprogress nounwind uwtable
define linkonce_odr noundef i32 @_ZNK6icu_758Calendar11internalGetE19UCalendarDateFields(ptr noundef nonnull align 8 dereferenceable(618) %this, i32 noundef %field) #0 comdat align 2 {
entry:
  %this.addr = alloca ptr, align 8
  %field.addr = alloca i32, align 4
  store ptr %this, ptr %this.addr, align 8
  store i32 %field, ptr %field.addr, align 4
  %this1 = load ptr, ptr %this.addr, align 8
  %fFields = getelementptr inbounds %"class.icu_75::Calendar", ptr %this1, i32 0, i32 5
  %0 = load i32, ptr %field.addr, align 4
  %idxprom = zext i32 %0 to i64
  %arrayidx = getelementptr inbounds [24 x i32], ptr %fFields, i64 0, i64 %idxprom
  %1 = load i32, ptr %arrayidx, align 4
  ret i32 %1
}

; Function Attrs: mustprogress uwtable
define void @_ZN6icu_7514TaiwanCalendar19handleComputeFieldsEiR10UErrorCode(ptr noundef nonnull align 8 dereferenceable(654) %this, i32 noundef %julianDay, ptr noundef nonnull align 4 dereferenceable(4) %status) unnamed_addr #1 align 2 {
entry:
  %this.addr = alloca ptr, align 8
  %julianDay.addr = alloca i32, align 4
  %status.addr = alloca ptr, align 8
  %y = alloca i32, align 4
  store ptr %this, ptr %this.addr, align 8
  store i32 %julianDay, ptr %julianDay.addr, align 4
  store ptr %status, ptr %status.addr, align 8
  %this1 = load ptr, ptr %this.addr, align 8
  %0 = load i32, ptr %julianDay.addr, align 4
  %1 = load ptr, ptr %status.addr, align 8
  call void @_ZN6icu_7517GregorianCalendar19handleComputeFieldsEiR10UErrorCode(ptr noundef nonnull align 8 dereferenceable(654) %this1, i32 noundef %0, ptr noundef nonnull align 4 dereferenceable(4) %1)
  %call = call noundef i32 @_ZNK6icu_758Calendar11internalGetE19UCalendarDateFields(ptr noundef nonnull align 8 dereferenceable(618) %this1, i32 noundef 19)
  %sub = sub nsw i32 %call, 1911
  store i32 %sub, ptr %y, align 4
  %2 = load i32, ptr %y, align 4
  %cmp = icmp sgt i32 %2, 0
  br i1 %cmp, label %if.then, label %if.else

if.then:                                          ; preds = %entry
  call void @_ZN6icu_758Calendar11internalSetE19UCalendarDateFieldsi(ptr noundef nonnull align 8 dereferenceable(618) %this1, i32 noundef 0, i32 noundef 1)
  %3 = load i32, ptr %y, align 4
  call void @_ZN6icu_758Calendar11internalSetE19UCalendarDateFieldsi(ptr noundef nonnull align 8 dereferenceable(618) %this1, i32 noundef 1, i32 noundef %3)
  br label %if.end

if.else:                                          ; preds = %entry
  call void @_ZN6icu_758Calendar11internalSetE19UCalendarDateFieldsi(ptr noundef nonnull align 8 dereferenceable(618) %this1, i32 noundef 0, i32 noundef 0)
  %4 = load i32, ptr %y, align 4
  %sub2 = sub nsw i32 1, %4
  call void @_ZN6icu_758Calendar11internalSetE19UCalendarDateFieldsi(ptr noundef nonnull align 8 dereferenceable(618) %this1, i32 noundef 1, i32 noundef %sub2)
  br label %if.end

if.end:                                           ; preds = %if.else, %if.then
  ret void
}