; Function Attrs: mustprogress uwtable
define void @_ZN6icu_7514TaiwanCalendar19handleComputeFieldsEiR10UErrorCode(ptr noundef nonnull align 8 dereferenceable(654) %this, i32 noundef %julianDay, ptr noundef nonnull align 4 dereferenceable(4) %status) unnamed_addr #1 align 2 {
entry:
  tail call void @_ZN6icu_7517GregorianCalendar19handleComputeFieldsEiR10UErrorCode(ptr noundef nonnull align 8 dereferenceable(654) %this, i32 noundef %julianDay, ptr noundef nonnull align 4 dereferenceable(4) %status)
  %arrayidx.i = getelementptr inbounds i8, ptr %this, i64 88
  %0 = load i32, ptr %arrayidx.i, align 8
  %cmp = icmp sgt i32 %0, 1911
  %sub = add nsw i32 %0, -1911
  %sub2 = sub nsw i32 1912, %0
  %.sink = zext i1 %cmp to i32
  %sub2.sink = select i1 %cmp, i32 %sub, i32 %sub2
  %fFields.i = getelementptr inbounds i8, ptr %this, i64 12
  store i32 %.sink, ptr %fFields.i, align 4
  %1 = getelementptr inbounds i8, ptr %this, i64 132
  store i32 1, ptr %1, align 4
  %2 = getelementptr inbounds i8, ptr %this, i64 108
  store i8 1, ptr %2, align 4
  %3 = getelementptr inbounds i8, ptr %this, i64 16
  store i32 %sub2.sink, ptr %3, align 8
  %4 = getelementptr inbounds i8, ptr %this, i64 136
  store i32 1, ptr %4, align 8
  %5 = getelementptr inbounds i8, ptr %this, i64 109
  store i8 1, ptr %5, align 1
  ret void
}